; Function Attrs: mustprogress nofree norecurse nosync nounwind willreturn memory(read, inaccessiblemem: none) uwtable
define hidden noundef zeroext i1 @_ZNK12quasi_macros22is_non_ground_uninterpEPK4expr(ptr noundef nonnull readnone align 8 captures(none) dereferenceable(560) %0, ptr noundef readonly captures(none) %1) local_unnamed_addr #8 align 2 {
  %3 = getelementptr inbounds nuw i8, ptr %1, i64 4
  %4 = load i32, ptr %3, align 4
  %5 = and i32 %4, 65535
  %6 = icmp eq i32 %5, 0
  br i1 %6, label %_Z13is_non_groundPK4expr.exit, label %_Z11is_uninterpPK4expr.exit

_Z13is_non_groundPK4expr.exit:                    ; preds = %2
  %7 = getelementptr inbounds nuw i8, ptr %1, i64 30
  %8 = load i8, ptr %7, align 2
  %9 = and i8 %8, 1
  %10 = icmp eq i8 %9, 0
  br i1 %10, label %11, label %_Z11is_uninterpPK4expr.exit

11:                                               ; preds = %_Z13is_non_groundPK4expr.exit
  %12 = getelementptr inbounds nuw i8, ptr %1, i64 16
  %13 = load ptr, ptr %12, align 8, !tbaa !63
  %14 = getelementptr inbounds nuw i8, ptr %13, i64 24
  %15 = load ptr, ptr %14, align 8, !tbaa !66
  %16 = icmp eq ptr %15, null
  br i1 %16, label %_Z11is_uninterpPK4expr.exit, label %17

17:                                               ; preds = %11
  %18 = load i32, ptr %15, align 8, !tbaa !69
  %19 = icmp eq i32 %18, -1
  br label %_Z11is_uninterpPK4expr.exit

_Z11is_uninterpPK4expr.exit:                      ; preds = %17, %11, %2, %_Z13is_non_groundPK4expr.exit
  %20 = phi i1 [ false, %_Z13is_non_groundPK4expr.exit ], [ %19, %17 ], [ true, %11 ], [ false, %2 ]
  ret i1 %20
}